; ModuleID = '9/14.c'
source_filename = "9/14.c"
target datalayout = "e-m:e-p270:32:32-p271:32:32-p272:64:64-i64:64-f80:128-n8:16:32:64-S128"
target triple = "x86_64-pc-linux-gnu"

@.str = private unnamed_addr constant [3 x i8] c"%d\00", align 1
@.str.1 = private unnamed_addr constant [6 x i8] c"%s %d\00", align 1
@.str.2 = private unnamed_addr constant [4 x i8] c"%s\0A\00", align 1

; Function Attrs: noinline nounwind uwtable
define dso_local i32 @main() #0 {
  %1 = alloca i32, align 4
  %2 = alloca i32, align 4
  %3 = alloca i32, align 4
  %4 = alloca i32, align 4
  %5 = alloca i32, align 4
  %6 = alloca [110 x i32], align 16
  %7 = alloca i32, align 4
  %8 = alloca [110 x i32], align 16
  %9 = alloca [110 x [20 x i8]], align 16
  %10 = alloca [20 x i8], align 16
  %11 = alloca [100 x [20 x i8]], align 16
  store i32 0, i32* %1, align 4
  %12 = call i32 (i8*, ...) @__isoc99_scanf(i8* getelementptr inbounds ([3 x i8], [3 x i8]* @.str, i64 0, i64 0), i32* %2)
  store i32 0, i32* %7, align 4
  store i32 1, i32* %3, align 4
  br label %13

13:                                               ; preds = %50, %0
  %14 = load i32, i32* %3, align 4
  %15 = load i32, i32* %2, align 4
  %16 = icmp sle i32 %14, %15
  br i1 %16, label %17, label %53

17:                                               ; preds = %13
  %18 = load i32, i32* %3, align 4
  %19 = sext i32 %18 to i64
  %20 = getelementptr inbounds [110 x [20 x i8]], [110 x [20 x i8]]* %9, i64 0, i64 %19
  %21 = load i32, i32* %3, align 4
  %22 = sext i32 %21 to i64
  %23 = getelementptr inbounds [110 x i32], [110 x i32]* %6, i64 0, i64 %22
  %24 = call i32 (i8*, ...) @__isoc99_scanf(i8* getelementptr inbounds ([6 x i8], [6 x i8]* @.str.1, i64 0, i64 0), [20 x i8]* %20, i32* %23)
  %25 = load i32, i32* %3, align 4
  %26 = sext i32 %25 to i64
  %27 = getelementptr inbounds [110 x i32], [110 x i32]* %6, i64 0, i64 %26
  %28 = load i32, i32* %27, align 4
  %29 = icmp sge i32 %28, 60
  br i1 %29, label %30, label %49

30:                                               ; preds = %17
  %31 = load i32, i32* %7, align 4
  %32 = add nsw i32 %31, 1
  store i32 %32, i32* %7, align 4
  %33 = load i32, i32* %3, align 4
  %34 = sext i32 %33 to i64
  %35 = getelementptr inbounds [110 x i32], [110 x i32]* %6, i64 0, i64 %34
  %36 = load i32, i32* %35, align 4
  %37 = load i32, i32* %7, align 4
  %38 = sext i32 %37 to i64
  %39 = getelementptr inbounds [110 x i32], [110 x i32]* %8, i64 0, i64 %38
  store i32 %36, i32* %39, align 4
  %40 = load i32, i32* %7, align 4
  %41 = sext i32 %40 to i64
  %42 = getelementptr inbounds [100 x [20 x i8]], [100 x [20 x i8]]* %11, i64 0, i64 %41
  %43 = getelementptr inbounds [20 x i8], [20 x i8]* %42, i64 0, i64 0
  %44 = load i32, i32* %3, align 4
  %45 = sext i32 %44 to i64
  %46 = getelementptr inbounds [110 x [20 x i8]], [110 x [20 x i8]]* %9, i64 0, i64 %45
  %47 = getelementptr inbounds [20 x i8], [20 x i8]* %46, i64 0, i64 0
  %48 = call i8* @strcpy(i8* %43, i8* %47) #3
  br label %49

49:                                               ; preds = %30, %17
  br label %50

50:                                               ; preds = %49
  %51 = load i32, i32* %3, align 4
  %52 = add nsw i32 %51, 1
  store i32 %52, i32* %3, align 4
  br label %13

53:                                               ; preds = %13
  store i32 1, i32* %3, align 4
  br label %54

54:                                               ; preds = %121, %53
  %55 = load i32, i32* %3, align 4
  %56 = load i32, i32* %7, align 4
  %57 = icmp sle i32 %55, %56
  br i1 %57, label %58, label %124

58:                                               ; preds = %54
  %59 = load i32, i32* %7, align 4
  store i32 %59, i32* %4, align 4
  br label %60

60:                                               ; preds = %117, %58
  %61 = load i32, i32* %4, align 4
  %62 = load i32, i32* %3, align 4
  %63 = icmp sgt i32 %61, %62
  br i1 %63, label %64, label %120

64:                                               ; preds = %60
  %65 = load i32, i32* %4, align 4
  %66 = sext i32 %65 to i64
  %67 = getelementptr inbounds [110 x i32], [110 x i32]* %8, i64 0, i64 %66
  %68 = load i32, i32* %67, align 4
  %69 = load i32, i32* %4, align 4
  %70 = sub nsw i32 %69, 1
  %71 = sext i32 %70 to i64
  %72 = getelementptr inbounds [110 x i32], [110 x i32]* %8, i64 0, i64 %71
  %73 = load i32, i32* %72, align 4
  %74 = icmp sgt i32 %68, %73
  br i1 %74, label %75, label %116

75:                                               ; preds = %64
  %76 = load i32, i32* %4, align 4
  %77 = sext i32 %76 to i64
  %78 = getelementptr inbounds [110 x i32], [110 x i32]* %8, i64 0, i64 %77
  %79 = load i32, i32* %78, align 4
  store i32 %79, i32* %5, align 4
  %80 = load i32, i32* %4, align 4
  %81 = sub nsw i32 %80, 1
  %82 = sext i32 %81 to i64
  %83 = getelementptr inbounds [110 x i32], [110 x i32]* %8, i64 0, i64 %82
  %84 = load i32, i32* %83, align 4
  %85 = load i32, i32* %4, align 4
  %86 = sext i32 %85 to i64
  %87 = getelementptr inbounds [110 x i32], [110 x i32]* %8, i64 0, i64 %86
  store i32 %84, i32* %87, align 4
  %88 = load i32, i32* %5, align 4
  %89 = load i32, i32* %4, align 4
  %90 = sub nsw i32 %89, 1
  %91 = sext i32 %90 to i64
  %92 = getelementptr inbounds [110 x i32], [110 x i32]* %8, i64 0, i64 %91
  store i32 %88, i32* %92, align 4
  %93 = getelementptr inbounds [20 x i8], [20 x i8]* %10, i64 0, i64 0
  %94 = load i32, i32* %4, align 4
  %95 = sext i32 %94 to i64
  %96 = getelementptr inbounds [100 x [20 x i8]], [100 x [20 x i8]]* %11, i64 0, i64 %95
  %97 = getelementptr inbounds [20 x i8], [20 x i8]* %96, i64 0, i64 0
  %98 = call i8* @strcpy(i8* %93, i8* %97) #3
  %99 = load i32, i32* %4, align 4
  %100 = sext i32 %99 to i64
  %101 = getelementptr inbounds [100 x [20 x i8]], [100 x [20 x i8]]* %11, i64 0, i64 %100
  %102 = getelementptr inbounds [20 x i8], [20 x i8]* %101, i64 0, i64 0
  %103 = load i32, i32* %4, align 4
  %104 = sub nsw i32 %103, 1
  %105 = sext i32 %104 to i64
  %106 = getelementptr inbounds [100 x [20 x i8]], [100 x [20 x i8]]* %11, i64 0, i64 %105
  %107 = getelementptr inbounds [20 x i8], [20 x i8]* %106, i64 0, i64 0
  %108 = call i8* @strcpy(i8* %102, i8* %107) #3
  %109 = load i32, i32* %4, align 4
  %110 = sub nsw i32 %109, 1
  %111 = sext i32 %110 to i64
  %112 = getelementptr inbounds [100 x [20 x i8]], [100 x [20 x i8]]* %11, i64 0, i64 %111
  %113 = getelementptr inbounds [20 x i8], [20 x i8]* %112, i64 0, i64 0
  %114 = getelementptr inbounds [20 x i8], [20 x i8]* %10, i64 0, i64 0
  %115 = call i8* @strcpy(i8* %113, i8* %114) #3
  br label %116

116:                                              ; preds = %75, %64
  br label %117

117:                                              ; preds = %116
  %118 = load i32, i32* %4, align 4
  %119 = add nsw i32 %118, -1
  store i32 %119, i32* %4, align 4
  br label %60

120:                                              ; preds = %60
  br label %121

121:                                              ; preds = %120
  %122 = load i32, i32* %3, align 4
  %123 = add nsw i32 %122, 1
  store i32 %123, i32* %3, align 4
  br label %54

124:                                              ; preds = %54
  store i32 1, i32* %3, align 4
  br label %125

125:                                              ; preds = %135, %124
  %126 = load i32, i32* %3, align 4
  %127 = load i32, i32* %7, align 4
  %128 = icmp sle i32 %126, %127
  br i1 %128, label %129, label %138

129:                                              ; preds = %125
  %130 = load i32, i32* %3, align 4
  %131 = sext i32 %130 to i64
  %132 = getelementptr inbounds [100 x [20 x i8]], [100 x [20 x i8]]* %11, i64 0, i64 %131
  %133 = getelementptr inbounds [20 x i8], [20 x i8]* %132, i64 0, i64 0
  %134 = call i32 (i8*, ...) @printf(i8* getelementptr inbounds ([4 x i8], [4 x i8]* @.str.2, i64 0, i64 0), i8* %133)
  br label %135

135:                                              ; preds = %129
  %136 = load i32, i32* %3, align 4
  %137 = add nsw i32 %136, 1
  store i32 %137, i32* %3, align 4
  br label %125

138:                                              ; preds = %125
  store i32 1, i32* %3, align 4
  br label %139

139:                                              ; preds = %156, %138
  %140 = load i32, i32* %3, align 4
  %141 = load i32, i32* %2, align 4
  %142 = icmp sle i32 %140, %141
  br i1 %142, label %143, label %159

143:                                              ; preds = %139
  %144 = load i32, i32* %3, align 4
  %145 = sext i32 %144 to i64
  %146 = getelementptr inbounds [110 x i32], [110 x i32]* %6, i64 0, i64 %145
  %147 = load i32, i32* %146, align 4
  %148 = icmp slt i32 %147, 60
  br i1 %148, label %149, label %155

149:                                              ; preds = %143
  %150 = load i32, i32* %3, align 4
  %151 = sext i32 %150 to i64
  %152 = getelementptr inbounds [110 x [20 x i8]], [110 x [20 x i8]]* %9, i64 0, i64 %151
  %153 = getelementptr inbounds [20 x i8], [20 x i8]* %152, i64 0, i64 0
  %154 = call i32 (i8*, ...) @printf(i8* getelementptr inbounds ([4 x i8], [4 x i8]* @.str.2, i64 0, i64 0), i8* %153)
  br label %155

155:                                              ; preds = %149, %143
  br label %156

156:                                              ; preds = %155
  %157 = load i32, i32* %3, align 4
  %158 = add nsw i32 %157, 1
  store i32 %158, i32* %3, align 4
  br label %139

159:                                              ; preds = %139
  ret i32 0
}

declare dso_local i32 @__isoc99_scanf(i8*, ...) #1

; Function Attrs: nounwind
declare dso_local i8* @strcpy(i8*, i8*) #2

declare dso_local i32 @printf(i8*, ...) #1


!llvm.module.flags = !{!0}
!llvm.ident = !{!1}

!0 = !{i32 1, !"wchar_size", i32 4}
!1 = !{!"clang version 10.0.0-4ubuntu1 "}
